target datalayout = "e-m:e-p270:32:32-p271:32:32-p272:64:64-i64:64-i128:128-f80:128-n8:16:32:64-S128"
target triple = "x86_64-pc-linux-gnu"

%struct.tr2_tgt = type { ptr, ptr, ptr, ptr, ptr, ptr, ptr, ptr, ptr, ptr, ptr, ptr, ptr, ptr, ptr, ptr, ptr, ptr, ptr, ptr, ptr, ptr, ptr, ptr, ptr, ptr, ptr, ptr, ptr, ptr }
%struct.child_process = type { %struct.strvec, %struct.strvec, i32, i32, i64, ptr, ptr, i32, i32, i32, ptr, i16, ptr }
%struct.strvec = type { ptr, i64, i64 }

@trace2_enabled = internal global i32 0, align 4
@tr2_tgt_builtins = internal global [4 x ptr] [ptr @tr2_tgt_normal, ptr @tr2_tgt_perf, ptr @tr2_tgt_event, ptr null], align 16

; Function Attrs: nounwind uwtable
define dso_local void @trace2_child_exit_fl(ptr noundef %0, i32 noundef %1, ptr noundef %2, i32 noundef %3) #0 {
  %5 = alloca ptr, align 8
  %6 = alloca i32, align 4
  %7 = alloca ptr, align 8
  %8 = alloca i32, align 4
  %9 = alloca ptr, align 8
  %10 = alloca i32, align 4
  %11 = alloca i64, align 8
  %12 = alloca i64, align 8
  %13 = alloca i64, align 8
  %14 = alloca i32, align 4
  store ptr %0, ptr %5, align 8, !tbaa !4
  store i32 %1, ptr %6, align 4, !tbaa !9
  store ptr %2, ptr %7, align 8, !tbaa !52
  store i32 %3, ptr %8, align 4, !tbaa !9
  call void @llvm.lifetime.start.p0(i64 8, ptr %9) #9
  call void @llvm.lifetime.start.p0(i64 4, ptr %10) #9
  call void @llvm.lifetime.start.p0(i64 8, ptr %11) #9
  call void @llvm.lifetime.start.p0(i64 8, ptr %12) #9
  call void @llvm.lifetime.start.p0(i64 8, ptr %13) #9
  %15 = load i32, ptr @trace2_enabled, align 4, !tbaa !9
  %16 = icmp ne i32 %15, 0
  br i1 %16, label %18, label %17

17:                                               ; preds = %4
  store i32 1, ptr %14, align 4
  br label %78

18:                                               ; preds = %4
  %19 = call i64 @getnanotime()
  %20 = udiv i64 %19, 1000
  store i64 %20, ptr %11, align 8, !tbaa !21
  %21 = load i64, ptr %11, align 8, !tbaa !21
  %22 = call i64 @tr2tls_absolute_elapsed(i64 noundef %21)
  store i64 %22, ptr %12, align 8, !tbaa !21
  %23 = load ptr, ptr %7, align 8, !tbaa !52
  %24 = getelementptr inbounds nuw %struct.child_process, ptr %23, i32 0, i32 4
  %25 = load i64, ptr %24, align 8, !tbaa !58
  %26 = icmp ne i64 %25, 0
  br i1 %26, label %27, label %33

27:                                               ; preds = %18
  %28 = load i64, ptr %11, align 8, !tbaa !21
  %29 = load ptr, ptr %7, align 8, !tbaa !52
  %30 = getelementptr inbounds nuw %struct.child_process, ptr %29, i32 0, i32 4
  %31 = load i64, ptr %30, align 8, !tbaa !58
  %32 = sub i64 %28, %31
  store i64 %32, ptr %13, align 8, !tbaa !21
  br label %34

33:                                               ; preds = %18
  store i64 0, ptr %13, align 8, !tbaa !21
  br label %34

34:                                               ; preds = %33, %27
  store i32 0, ptr %10, align 4, !tbaa !9
  %35 = load i32, ptr %10, align 4, !tbaa !9
  %36 = sext i32 %35 to i64
  %37 = getelementptr inbounds [4 x ptr], ptr @tr2_tgt_builtins, i64 0, i64 %36
  %38 = load ptr, ptr %37, align 8, !tbaa !11
  store ptr %38, ptr %9, align 8, !tbaa !11
  br label %39

39:                                               ; preds = %70, %34
  %40 = load ptr, ptr %9, align 8, !tbaa !11
  %41 = icmp ne ptr %40, null
  br i1 %41, label %42, label %77

42:                                               ; preds = %39
  %43 = load ptr, ptr %9, align 8, !tbaa !11
  %44 = getelementptr inbounds nuw %struct.tr2_tgt, ptr %43, i32 0, i32 0
  %45 = load ptr, ptr %44, align 8, !tbaa !13
  %46 = call i32 @tr2_dst_trace_want(ptr noundef %45)
  %47 = icmp ne i32 %46, 0
  br i1 %47, label %48, label %69

48:                                               ; preds = %42
  %49 = load ptr, ptr %9, align 8, !tbaa !11
  %50 = getelementptr inbounds nuw %struct.tr2_tgt, ptr %49, i32 0, i32 15
  %51 = load ptr, ptr %50, align 8, !tbaa !61
  %52 = icmp ne ptr %51, null
  br i1 %52, label %53, label %68

53:                                               ; preds = %48
  %54 = load ptr, ptr %9, align 8, !tbaa !11
  %55 = getelementptr inbounds nuw %struct.tr2_tgt, ptr %54, i32 0, i32 15
  %56 = load ptr, ptr %55, align 8, !tbaa !61
  %57 = load ptr, ptr %5, align 8, !tbaa !4
  %58 = load i32, ptr %6, align 4, !tbaa !9
  %59 = load i64, ptr %12, align 8, !tbaa !21
  %60 = load ptr, ptr %7, align 8, !tbaa !52
  %61 = getelementptr inbounds nuw %struct.child_process, ptr %60, i32 0, i32 3
  %62 = load i32, ptr %61, align 4, !tbaa !57
  %63 = load ptr, ptr %7, align 8, !tbaa !52
  %64 = getelementptr inbounds nuw %struct.child_process, ptr %63, i32 0, i32 2
  %65 = load i32, ptr %64, align 8, !tbaa !62
  %66 = load i32, ptr %8, align 4, !tbaa !9
  %67 = load i64, ptr %13, align 8, !tbaa !21
  call void %56(ptr noundef %57, i32 noundef %58, i64 noundef %59, i32 noundef %62, i32 noundef %65, i32 noundef %66, i64 noundef %67)
  br label %68

68:                                               ; preds = %53, %48
  br label %69

69:                                               ; preds = %68, %42
  br label %70

70:                                               ; preds = %69
  %71 = load i32, ptr %10, align 4, !tbaa !9
  %72 = add nsw i32 %71, 1
  store i32 %72, ptr %10, align 4, !tbaa !9
  %73 = load i32, ptr %10, align 4, !tbaa !9
  %74 = sext i32 %73 to i64
  %75 = getelementptr inbounds [4 x ptr], ptr @tr2_tgt_builtins, i64 0, i64 %74
  %76 = load ptr, ptr %75, align 8, !tbaa !11
  store ptr %76, ptr %9, align 8, !tbaa !11
  br label %39, !llvm.loop !63

77:                                               ; preds = %39
  store i32 0, ptr %14, align 4
  br label %78

78:                                               ; preds = %77, %17
  call void @llvm.lifetime.end.p0(i64 8, ptr %13) #9
  call void @llvm.lifetime.end.p0(i64 8, ptr %12) #9
  call void @llvm.lifetime.end.p0(i64 8, ptr %11) #9
  call void @llvm.lifetime.end.p0(i64 4, ptr %10) #9
  call void @llvm.lifetime.end.p0(i64 8, ptr %9) #9
  %79 = load i32, ptr %14, align 4
  switch i32 %79, label %81 [
    i32 0, label %80
    i32 1, label %80
  ]

80:                                               ; preds = %78, %78
  ret void

81:                                               ; preds = %78
  unreachable
}