; Function Attrs: nounwind uwtable
define dso_local void @trace2_child_exit_fl(ptr noundef %0, i32 noundef %1, ptr noundef readonly captures(none) %2, i32 noundef %3) local_unnamed_addr #0 {
  %.b = load i1, ptr @trace2_enabled, align 4
  br i1 %.b, label %5, label %.loopexit

5:                                                ; preds = %4
  %6 = tail call i64 @getnanotime() #11
  %7 = udiv i64 %6, 1000
  %8 = tail call i64 @tr2tls_absolute_elapsed(i64 noundef %7) #11
  %9 = getelementptr inbounds nuw i8, ptr %2, i64 56
  %10 = load i64, ptr %9, align 8, !tbaa !56
  %.not = icmp eq i64 %10, 0
  %11 = sub i64 %7, %10
  %.0 = select i1 %.not, i64 0, i64 %11
  %12 = getelementptr inbounds nuw i8, ptr %2, i64 52
  %13 = getelementptr inbounds nuw i8, ptr %2, i64 48
  br label %14

14:                                               ; preds = %5, %23
  %indvars.iv = phi i64 [ 0, %5 ], [ %indvars.iv.next, %23 ]
  %.01725 = phi ptr [ @tr2_tgt_normal, %5 ], [ %25, %23 ]
  %15 = load ptr, ptr %.01725, align 8, !tbaa !14
  %16 = tail call i32 @tr2_dst_trace_want(ptr noundef %15) #11
  %.not22 = icmp eq i32 %16, 0
  br i1 %.not22, label %23, label %17

17:                                               ; preds = %14
  %18 = getelementptr inbounds nuw i8, ptr %.01725, i64 120
  %19 = load ptr, ptr %18, align 8, !tbaa !59
  %.not23 = icmp eq ptr %19, null
  br i1 %.not23, label %23, label %20

20:                                               ; preds = %17
  %21 = load i32, ptr %12, align 4, !tbaa !55
  %22 = load i32, ptr %13, align 8, !tbaa !60
  tail call void %19(ptr noundef %0, i32 noundef %1, i64 noundef %8, i32 noundef %21, i32 noundef %22, i32 noundef %3, i64 noundef %.0) #11
  br label %23

23:                                               ; preds = %14, %20, %17
  %indvars.iv.next = add nuw nsw i64 %indvars.iv, 1
  %24 = getelementptr inbounds nuw [4 x ptr], ptr @tr2_tgt_builtins, i64 0, i64 %indvars.iv.next
  %25 = load ptr, ptr %24, align 8, !tbaa !10
  %.not21 = icmp eq i64 %indvars.iv.next, 3
  br i1 %.not21, label %.loopexit, label %14, !llvm.loop !61

.loopexit:                                        ; preds = %23, %4
  ret void
}